target datalayout = "e-m:e-p270:32:32-p271:32:32-p272:64:64-i64:64-i128:128-f80:128-n8:16:32:64-S128"
target triple = "x86_64-pc-linux-gnu"

; Function Attrs: mustprogress uwtable
define noundef i32 @_ZN3zmq12udp_engine_t18set_udp_reuse_portEib(i32 noundef %0, i1 noundef zeroext %1) #0 align 2 {
  %3 = alloca i32, align 4
  %4 = alloca i8, align 1
  %5 = alloca i32, align 4
  %6 = alloca i32, align 4
  store i32 %0, ptr %3, align 4, !tbaa !83
  %7 = zext i1 %1 to i8
  store i8 %7, ptr %4, align 1, !tbaa !86
  call void @llvm.lifetime.start.p0(i64 4, ptr %5) #21
  %8 = load i8, ptr %4, align 1, !tbaa !86, !range !77, !noundef !78
  %9 = trunc i8 %8 to i1
  %10 = select i1 %9, i32 1, i32 0
  store i32 %10, ptr %5, align 4, !tbaa !83
  call void @llvm.lifetime.start.p0(i64 4, ptr %6) #21
  %11 = load i32, ptr %3, align 4, !tbaa !83
  %12 = call i32 @setsockopt(i32 noundef %11, i32 noundef 1, i32 noundef 15, ptr noundef %5, i32 noundef 4) #21
  store i32 %12, ptr %6, align 4, !tbaa !83
  %13 = load i32, ptr %3, align 4, !tbaa !83
  %14 = load i32, ptr %6, align 4, !tbaa !83
  call void @_ZN3zmq29assert_success_or_recoverableEii(i32 noundef %13, i32 noundef %14)
  %15 = load i32, ptr %6, align 4, !tbaa !83
  call void @llvm.lifetime.end.p0(i64 4, ptr %6) #21
  call void @llvm.lifetime.end.p0(i64 4, ptr %5) #21
  ret i32 %15
}